target datalayout = "e-m:e-p270:32:32-p271:32:32-p272:64:64-i64:64-i128:128-f80:128-n8:16:32:64-S128"
target triple = "x86_64-pc-linux-gnu"

%struct._packet_info = type { ptr, ptr, i32, i32, %struct.nstime_t, %struct.nstime_t, %struct.nstime_t, i8, ptr, ptr, ptr, ptr, %struct._address, %struct._address, %struct._address, %struct._address, %struct._address, %struct._address, i32, ptr, i8, [3 x i8], %struct.anon, i32, i32, i32, i32, ptr, i8, ptr, ptr, i16, i16, i32, i32, i16, i32, i32, ptr, ptr, ptr, i8, i8, i16, i16, i16, i32, i16, i16, ptr, ptr, ptr, ptr, ptr, i32, i32 }
%struct.nstime_t = type { i64, i32 }
%struct._address = type { i32, i32, ptr, ptr }
%struct.anon = type { i8, [3 x i8] }
%struct.MAD_Data = type { i8, i8, i8, i8, i16, i64, i16, i32, [232 x i8] }

@hf_infiniband_reserved = internal global i32 0, align 4
@hf_infiniband_m_key = internal global i32 0, align 4
@hf_infiniband_smp_data = internal global i32 0, align 4
@hf_infiniband_SMP_DIRECTED = internal global i32 0, align 4
@hf_infiniband_smp_status = internal global i32 0, align 4
@hf_infiniband_hop_pointer = internal global i32 0, align 4
@hf_infiniband_hop_count = internal global i32 0, align 4
@hf_infiniband_dr_slid = internal global i32 0, align 4
@hf_infiniband_dr_dlid = internal global i32 0, align 4
@hf_infiniband_d = internal global i32 0, align 4
@hf_infiniband_initial_path = internal global i32 0, align 4
@hf_infiniband_return_path = internal global i32 0, align 4
@ett_subn_directed_route = internal global i32 0, align 4
@.str.1230 = private unnamed_addr constant [3 x i8] c"%s\00", align 1
@.str.1337 = private unnamed_addr constant [32 x i8] c"(Unknown SubManagement Method!)\00", align 1
@.str.1344 = private unnamed_addr constant [35 x i8] c"(Unknown SubManagement Attribute!)\00", align 1
@.str.1487 = private unnamed_addr constant [22 x i8] c"SMP (Directed Route) \00", align 1

; Function Attrs: null_pointer_is_valid sspstrong uwtable
define internal void @label_SUBM_Attribute(ptr noundef %0, ptr noundef %1, ptr noundef %2) #0 {
  %4 = alloca ptr, align 8
  %5 = alloca ptr, align 8
  %6 = alloca ptr, align 8
  %7 = alloca ptr, align 8
  store ptr %0, ptr %4, align 8
  store ptr %1, ptr %5, align 8
  store ptr %2, ptr %6, align 8
  call void @llvm.lifetime.start.p0(i64 8, ptr %7) #18
  %8 = load ptr, ptr %5, align 8
  %9 = getelementptr inbounds nuw %struct.MAD_Data, ptr %8, i32 0, i32 6
  %10 = load i16, ptr %9, align 8
  %11 = zext i16 %10 to i32
  %12 = call ptr @val_to_str_const(i32 noundef %11, ptr noundef @SUBM_Attributes, ptr noundef @.str.1344)
  store ptr %12, ptr %7, align 8
  %13 = load ptr, ptr %4, align 8
  %14 = load ptr, ptr %7, align 8
  %15 = getelementptr i8, ptr %14, i64 11
  call void (ptr, ptr, ...) @proto_item_append_text(ptr noundef %13, ptr noundef @.str.1230, ptr noundef %15)
  %16 = load ptr, ptr %6, align 8
  %17 = getelementptr inbounds nuw %struct._packet_info, ptr %16, i32 0, i32 1
  %18 = load ptr, ptr %17, align 8
  %19 = load ptr, ptr %7, align 8
  %20 = getelementptr i8, ptr %19, i64 11
  call void @col_append_str(ptr noundef %18, i32 noundef 25, ptr noundef %20)
  call void @llvm.lifetime.end.p0(i64 8, ptr %7) #18
  ret void
}

; Function Attrs: null_pointer_is_valid sspstrong uwtable
define internal void @label_SUBM_Method(ptr noundef %0, ptr noundef %1, ptr noundef %2) #0 {
  %4 = alloca ptr, align 8
  %5 = alloca ptr, align 8
  %6 = alloca ptr, align 8
  %7 = alloca ptr, align 8
  store ptr %0, ptr %4, align 8
  store ptr %1, ptr %5, align 8
  store ptr %2, ptr %6, align 8
  call void @llvm.lifetime.start.p0(i64 8, ptr %7) #18
  %8 = load ptr, ptr %5, align 8
  %9 = getelementptr inbounds nuw %struct.MAD_Data, ptr %8, i32 0, i32 2
  %10 = load i8, ptr %9, align 2
  %11 = zext i8 %10 to i32
  %12 = call ptr @val_to_str_const(i32 noundef %11, ptr noundef @SUBM_Methods, ptr noundef @.str.1337)
  store ptr %12, ptr %7, align 8
  %13 = load ptr, ptr %4, align 8
  %14 = load ptr, ptr %7, align 8
  call void (ptr, ptr, ...) @proto_item_append_text(ptr noundef %13, ptr noundef @.str.1230, ptr noundef %14)
  %15 = load ptr, ptr %6, align 8
  %16 = getelementptr inbounds nuw %struct._packet_info, ptr %15, i32 0, i32 1
  %17 = load ptr, ptr %16, align 8
  %18 = load ptr, ptr %7, align 8
  call void @col_append_str(ptr noundef %17, i32 noundef 25, ptr noundef %18)
  call void @llvm.lifetime.end.p0(i64 8, ptr %7) #18
  ret void
}

; Function Attrs: null_pointer_is_valid sspstrong uwtable
define internal void @parse_SUBN_DIRECTED_ROUTE(ptr noundef %0, ptr noundef %1, ptr noundef %2, ptr noundef %3) #0 {
  %5 = alloca ptr, align 8
  %6 = alloca ptr, align 8
  %7 = alloca ptr, align 8
  %8 = alloca ptr, align 8
  %9 = alloca %struct.MAD_Data, align 8
  %10 = alloca i32, align 4
  %11 = alloca ptr, align 8
  %12 = alloca ptr, align 8
  %13 = alloca i32, align 4
  store ptr %0, ptr %5, align 8
  store ptr %1, ptr %6, align 8
  store ptr %2, ptr %7, align 8
  store ptr %3, ptr %8, align 8
  call void @llvm.lifetime.start.p0(i64 256, ptr %9) #18
  call void @llvm.lifetime.start.p0(i64 4, ptr %10) #18
  call void @llvm.lifetime.start.p0(i64 8, ptr %11) #18
  call void @llvm.lifetime.start.p0(i64 8, ptr %12) #18
  %14 = load ptr, ptr %5, align 8
  %15 = load ptr, ptr %7, align 8
  %16 = load ptr, ptr %8, align 8
  %17 = call zeroext i1 @parse_MAD_Common(ptr noundef %14, ptr noundef %15, ptr noundef %16, ptr noundef %9)
  br i1 %17, label %19, label %18

18:                                               ; preds = %4
  store i32 1, ptr %13, align 4
  br label %122

19:                                               ; preds = %4
  %20 = load ptr, ptr %8, align 8
  %21 = load i32, ptr %20, align 4
  store i32 %21, ptr %10, align 4
  %22 = load ptr, ptr %5, align 8
  %23 = load i32, ptr @hf_infiniband_SMP_DIRECTED, align 4
  %24 = load ptr, ptr %7, align 8
  %25 = load i32, ptr %10, align 4
  %26 = sub i32 %25, 24
  %27 = call ptr @proto_tree_add_item(ptr noundef %22, i32 noundef %23, ptr noundef %24, i32 noundef %26, i32 noundef 256, i32 noundef 0)
  store ptr %27, ptr %11, align 8
  %28 = load ptr, ptr %11, align 8
  call void (ptr, ptr, ...) @proto_item_set_text(ptr noundef %28, ptr noundef @.str.1230, ptr noundef @.str.1487)
  %29 = load ptr, ptr %11, align 8
  %30 = load i32, ptr @ett_subn_directed_route, align 4
  %31 = call ptr @proto_item_add_subtree(ptr noundef %29, i32 noundef %30)
  store ptr %31, ptr %12, align 8
  %32 = load ptr, ptr %11, align 8
  %33 = load ptr, ptr %6, align 8
  call void @label_SUBM_Method(ptr noundef %32, ptr noundef %9, ptr noundef %33)
  %34 = load ptr, ptr %11, align 8
  %35 = load ptr, ptr %6, align 8
  call void @label_SUBM_Attribute(ptr noundef %34, ptr noundef %9, ptr noundef %35)
  %36 = load i32, ptr %10, align 4
  %37 = sub i32 %36, 20
  store i32 %37, ptr %10, align 4
  %38 = load ptr, ptr %12, align 8
  %39 = load i32, ptr @hf_infiniband_d, align 4
  %40 = load ptr, ptr %7, align 8
  %41 = load i32, ptr %10, align 4
  %42 = call ptr @proto_tree_add_item(ptr noundef %38, i32 noundef %39, ptr noundef %40, i32 noundef %41, i32 noundef 1, i32 noundef 0)
  %43 = load ptr, ptr %12, align 8
  %44 = load i32, ptr @hf_infiniband_smp_status, align 4
  %45 = load ptr, ptr %7, align 8
  %46 = load i32, ptr %10, align 4
  %47 = call ptr @proto_tree_add_item(ptr noundef %43, i32 noundef %44, ptr noundef %45, i32 noundef %46, i32 noundef 2, i32 noundef 0)
  %48 = load i32, ptr %10, align 4
  %49 = add i32 %48, 2
  store i32 %49, ptr %10, align 4
  %50 = load ptr, ptr %12, align 8
  %51 = load i32, ptr @hf_infiniband_hop_pointer, align 4
  %52 = load ptr, ptr %7, align 8
  %53 = load i32, ptr %10, align 4
  %54 = call ptr @proto_tree_add_item(ptr noundef %50, i32 noundef %51, ptr noundef %52, i32 noundef %53, i32 noundef 1, i32 noundef 0)
  %55 = load i32, ptr %10, align 4
  %56 = add i32 %55, 1
  store i32 %56, ptr %10, align 4
  %57 = load ptr, ptr %12, align 8
  %58 = load i32, ptr @hf_infiniband_hop_count, align 4
  %59 = load ptr, ptr %7, align 8
  %60 = load i32, ptr %10, align 4
  %61 = call ptr @proto_tree_add_item(ptr noundef %57, i32 noundef %58, ptr noundef %59, i32 noundef %60, i32 noundef 1, i32 noundef 0)
  %62 = load i32, ptr %10, align 4
  %63 = add i32 %62, 1
  store i32 %63, ptr %10, align 4
  %64 = load i32, ptr %10, align 4
  %65 = add i32 %64, 16
  store i32 %65, ptr %10, align 4
  %66 = load ptr, ptr %12, align 8
  %67 = load i32, ptr @hf_infiniband_m_key, align 4
  %68 = load ptr, ptr %7, align 8
  %69 = load i32, ptr %10, align 4
  %70 = call ptr @proto_tree_add_item(ptr noundef %66, i32 noundef %67, ptr noundef %68, i32 noundef %69, i32 noundef 8, i32 noundef 0)
  %71 = load i32, ptr %10, align 4
  %72 = add i32 %71, 8
  store i32 %72, ptr %10, align 4
  %73 = load ptr, ptr %12, align 8
  %74 = load i32, ptr @hf_infiniband_dr_slid, align 4
  %75 = load ptr, ptr %7, align 8
  %76 = load i32, ptr %10, align 4
  %77 = call ptr @proto_tree_add_item(ptr noundef %73, i32 noundef %74, ptr noundef %75, i32 noundef %76, i32 noundef 2, i32 noundef 0)
  %78 = load i32, ptr %10, align 4
  %79 = add i32 %78, 2
  store i32 %79, ptr %10, align 4
  %80 = load ptr, ptr %12, align 8
  %81 = load i32, ptr @hf_infiniband_dr_dlid, align 4
  %82 = load ptr, ptr %7, align 8
  %83 = load i32, ptr %10, align 4
  %84 = call ptr @proto_tree_add_item(ptr noundef %80, i32 noundef %81, ptr noundef %82, i32 noundef %83, i32 noundef 2, i32 noundef 0)
  %85 = load i32, ptr %10, align 4
  %86 = add i32 %85, 2
  store i32 %86, ptr %10, align 4
  %87 = load ptr, ptr %12, align 8
  %88 = load i32, ptr @hf_infiniband_reserved, align 4
  %89 = load ptr, ptr %7, align 8
  %90 = load i32, ptr %10, align 4
  %91 = call ptr @proto_tree_add_item(ptr noundef %87, i32 noundef %88, ptr noundef %89, i32 noundef %90, i32 noundef 28, i32 noundef 0)
  %92 = load i32, ptr %10, align 4
  %93 = add i32 %92, 28
  store i32 %93, ptr %10, align 4
  %94 = load ptr, ptr %12, align 8
  %95 = load ptr, ptr %7, align 8
  %96 = call zeroext i1 @parse_SUBM_Attribute(ptr noundef %94, ptr noundef %95, ptr noundef %10, ptr noundef %9)
  br i1 %96, label %105, label %97

97:                                               ; preds = %19
  %98 = load ptr, ptr %12, align 8
  %99 = load i32, ptr @hf_infiniband_smp_data, align 4
  %100 = load ptr, ptr %7, align 8
  %101 = load i32, ptr %10, align 4
  %102 = call ptr @proto_tree_add_item(ptr noundef %98, i32 noundef %99, ptr noundef %100, i32 noundef %101, i32 noundef 64, i32 noundef 0)
  %103 = load i32, ptr %10, align 4
  %104 = add i32 %103, 64
  store i32 %104, ptr %10, align 4
  br label %105

105:                                              ; preds = %97, %19
  %106 = load ptr, ptr %12, align 8
  %107 = load i32, ptr @hf_infiniband_initial_path, align 4
  %108 = load ptr, ptr %7, align 8
  %109 = load i32, ptr %10, align 4
  %110 = call ptr @proto_tree_add_item(ptr noundef %106, i32 noundef %107, ptr noundef %108, i32 noundef %109, i32 noundef 64, i32 noundef 0)
  %111 = load i32, ptr %10, align 4
  %112 = add i32 %111, 64
  store i32 %112, ptr %10, align 4
  %113 = load ptr, ptr %12, align 8
  %114 = load i32, ptr @hf_infiniband_return_path, align 4
  %115 = load ptr, ptr %7, align 8
  %116 = load i32, ptr %10, align 4
  %117 = call ptr @proto_tree_add_item(ptr noundef %113, i32 noundef %114, ptr noundef %115, i32 noundef %116, i32 noundef 64, i32 noundef 0)
  %118 = load i32, ptr %10, align 4
  %119 = add i32 %118, 64
  store i32 %119, ptr %10, align 4
  %120 = load i32, ptr %10, align 4
  %121 = load ptr, ptr %8, align 8
  store i32 %120, ptr %121, align 4
  store i32 0, ptr %13, align 4
  br label %122

122:                                              ; preds = %105, %18
  call void @llvm.lifetime.end.p0(i64 8, ptr %12) #18
  call void @llvm.lifetime.end.p0(i64 8, ptr %11) #18
  call void @llvm.lifetime.end.p0(i64 4, ptr %10) #18
  call void @llvm.lifetime.end.p0(i64 256, ptr %9) #18
  %123 = load i32, ptr %13, align 4
  switch i32 %123, label %125 [
    i32 0, label %124
    i32 1, label %124
  ]

124:                                              ; preds = %122, %122
  ret void

125:                                              ; preds = %122
  unreachable
}