; Function Attrs: null_pointer_is_valid sspstrong uwtable
define internal fastcc void @parse_SUBN_DIRECTED_ROUTE(ptr noundef %0, ptr noundef readonly captures(none) %1, ptr noundef %2, ptr noundef captures(none) %3) unnamed_addr #0 {
  %5 = alloca %struct.MAD_Data, align 8
  %6 = alloca i32, align 4
  call void @llvm.lifetime.start.p0(i64 256, ptr nonnull %5) #14
  call void @llvm.lifetime.start.p0(i64 4, ptr nonnull %6) #14
  %7 = call fastcc zeroext i1 @parse_MAD_Common(ptr noundef %0, ptr noundef %2, ptr noundef %3, ptr noundef nonnull %5)
  br i1 %7, label %8, label %55

8:                                                ; preds = %4
  %9 = load i32, ptr %3, align 4
  %10 = load i32, ptr @hf_infiniband_SMP_DIRECTED, align 4
  %11 = add i32 %9, -24
  %12 = call ptr @proto_tree_add_item(ptr noundef %0, i32 noundef %10, ptr noundef %2, i32 noundef %11, i32 noundef 256, i32 noundef 0)
  call void (ptr, ptr, ...) @proto_item_set_text(ptr noundef %12, ptr noundef nonnull @.str.1230, ptr noundef nonnull @.str.1487)
  %13 = load i32, ptr @ett_subn_directed_route, align 4
  %14 = call ptr @proto_item_add_subtree(ptr noundef %12, i32 noundef %13)
  %15 = getelementptr inbounds nuw i8, ptr %5, i64 2
  %.val = load i8, ptr %15, align 2
  %16 = zext i8 %.val to i32
  %17 = call ptr @val_to_str_const(i32 noundef %16, ptr noundef nonnull @SUBM_Methods, ptr noundef nonnull @.str.1337)
  call void (ptr, ptr, ...) @proto_item_append_text(ptr noundef %12, ptr noundef nonnull @.str.1230, ptr noundef %17)
  %18 = getelementptr inbounds nuw i8, ptr %1, i64 8
  %19 = load ptr, ptr %18, align 8
  call void @col_append_str(ptr noundef %19, i32 noundef 25, ptr noundef %17)
  %20 = getelementptr inbounds nuw i8, ptr %5, i64 16
  %.val37 = load i16, ptr %20, align 8
  %21 = zext i16 %.val37 to i32
  %22 = call ptr @val_to_str_const(i32 noundef %21, ptr noundef nonnull @SUBM_Attributes, ptr noundef nonnull @.str.1344)
  %23 = getelementptr i8, ptr %22, i64 11
  call void (ptr, ptr, ...) @proto_item_append_text(ptr noundef %12, ptr noundef nonnull @.str.1230, ptr noundef %23)
  %24 = load ptr, ptr %18, align 8
  call void @col_append_str(ptr noundef %24, i32 noundef 25, ptr noundef %23)
  %25 = add i32 %9, -20
  %26 = load i32, ptr @hf_infiniband_d, align 4
  %27 = call ptr @proto_tree_add_item(ptr noundef %14, i32 noundef %26, ptr noundef %2, i32 noundef %25, i32 noundef 1, i32 noundef 0)
  %28 = load i32, ptr @hf_infiniband_smp_status, align 4
  %29 = call ptr @proto_tree_add_item(ptr noundef %14, i32 noundef %28, ptr noundef %2, i32 noundef %25, i32 noundef 2, i32 noundef 0)
  %30 = add i32 %9, -18
  %31 = load i32, ptr @hf_infiniband_hop_pointer, align 4
  %32 = call ptr @proto_tree_add_item(ptr noundef %14, i32 noundef %31, ptr noundef %2, i32 noundef %30, i32 noundef 1, i32 noundef 0)
  %33 = add i32 %9, -17
  %34 = load i32, ptr @hf_infiniband_hop_count, align 4
  %35 = call ptr @proto_tree_add_item(ptr noundef %14, i32 noundef %34, ptr noundef %2, i32 noundef %33, i32 noundef 1, i32 noundef 0)
  %36 = load i32, ptr @hf_infiniband_m_key, align 4
  %37 = call ptr @proto_tree_add_item(ptr noundef %14, i32 noundef %36, ptr noundef %2, i32 noundef %9, i32 noundef 8, i32 noundef 0)
  %38 = add i32 %9, 8
  %39 = load i32, ptr @hf_infiniband_dr_slid, align 4
  %40 = call ptr @proto_tree_add_item(ptr noundef %14, i32 noundef %39, ptr noundef %2, i32 noundef %38, i32 noundef 2, i32 noundef 0)
  %41 = add i32 %9, 10
  %42 = load i32, ptr @hf_infiniband_dr_dlid, align 4
  %43 = call ptr @proto_tree_add_item(ptr noundef %14, i32 noundef %42, ptr noundef %2, i32 noundef %41, i32 noundef 2, i32 noundef 0)
  %44 = add i32 %9, 12
  %45 = load i32, ptr @hf_infiniband_reserved, align 4
  %46 = call ptr @proto_tree_add_item(ptr noundef %14, i32 noundef %45, ptr noundef %2, i32 noundef %44, i32 noundef 28, i32 noundef 0)
  %47 = add i32 %9, 40
  store i32 %47, ptr %6, align 4
  %.val38 = load i16, ptr %20, align 8
  call fastcc void @parse_SUBM_Attribute(ptr noundef %14, ptr noundef %2, ptr noundef nonnull %6, i16 %.val38)
  %48 = load i32, ptr @hf_infiniband_initial_path, align 4
  %49 = load i32, ptr %6, align 4
  %50 = call ptr @proto_tree_add_item(ptr noundef %14, i32 noundef %48, ptr noundef %2, i32 noundef %49, i32 noundef 64, i32 noundef 0)
  %51 = add i32 %49, 64
  %52 = load i32, ptr @hf_infiniband_return_path, align 4
  %53 = call ptr @proto_tree_add_item(ptr noundef %14, i32 noundef %52, ptr noundef %2, i32 noundef %51, i32 noundef 64, i32 noundef 0)
  %54 = add i32 %49, 128
  store i32 %54, ptr %3, align 4
  br label %55

55:                                               ; preds = %4, %8
  call void @llvm.lifetime.end.p0(i64 4, ptr nonnull %6) #14
  call void @llvm.lifetime.end.p0(i64 256, ptr nonnull %5) #14
  ret void
}